target datalayout = "e-m:e-p270:32:32-p271:32:32-p272:64:64-i64:64-i128:128-f80:128-n8:16:32:64-S128"
target triple = "x86_64-pc-linux-gnu"

%struct.GVJ_s = type { ptr, ptr, ptr, ptr, ptr, ptr, i32, ptr, ptr, ptr, ptr, i64, i64, ptr, i32, %struct.gvplugin_active_render_s, %struct.gvplugin_active_device_s, %struct.gvplugin_active_loadimage_t, ptr, %struct.pointf_s, i8, ptr, i32, ptr, i8, ptr, i32, i32, i32, %struct.point, %struct.point, %struct.point, %struct.point, %struct.point, i32, %struct.boxf, %struct.pointf_s, %struct.boxf, %struct.boxf, %struct.pointf_s, %struct.pointf_s, double, i32, %struct.pointf_s, %struct.boxf, %struct.pointf_s, %struct.pointf_s, i32, i32, %struct.box, %struct.box, %struct.pointf_s, %struct.pointf_s, %struct.pointf_s, i8, i8, i8, i8, i8, i8, %struct.pointf_s, %struct.pointf_s, ptr, ptr, ptr, ptr, ptr, ptr, i64, ptr }
%struct.gvplugin_active_render_s = type { ptr, i32, ptr, ptr }
%struct.gvplugin_active_device_s = type { ptr, i32, ptr, ptr }
%struct.gvplugin_active_loadimage_t = type { ptr, i32, ptr }
%struct.point = type { i32, i32 }
%struct.boxf = type { %struct.pointf_s, %struct.pointf_s }
%struct.box = type { %struct.point, %struct.point }
%struct.pointf_s = type { double, double }
%struct.color_s = type { %union.anon, i32 }
%union.anon = type { [4 x double] }
%struct.obj_state_s = type { ptr, i32, %union.anon.0, i32, %struct.color_s, %struct.color_s, %struct.color_s, i32, double, i32, i32, double, ptr, double, double, double, ptr, ptr, ptr, ptr, ptr, ptr, ptr, ptr, ptr, ptr, ptr, ptr, ptr, ptr, ptr, ptr, ptr, i16, i32, i64, ptr, i64, ptr, ptr, i32, ptr, i32, ptr }
%union.anon.0 = type { ptr }

@.str = private unnamed_addr constant [6 x i8] c"solid\00", align 1
@.str.1 = private unnamed_addr constant [7 x i8] c"dashed\00", align 1
@.str.2 = private unnamed_addr constant [7 x i8] c"dotted\00", align 1
@.str.3 = private unnamed_addr constant [6 x i8] c"invis\00", align 1
@.str.4 = private unnamed_addr constant [10 x i8] c"invisible\00", align 1
@.str.5 = private unnamed_addr constant [5 x i8] c"bold\00", align 1
@.str.6 = private unnamed_addr constant [13 x i8] c"setlinewidth\00", align 1
@.str.7 = private unnamed_addr constant [7 x i8] c"filled\00", align 1
@.str.8 = private unnamed_addr constant [9 x i8] c"unfilled\00", align 1
@.str.9 = private unnamed_addr constant [8 x i8] c"tapered\00", align 1
@.str.10 = private unnamed_addr constant [53 x i8] c"gvrender_set_style: unsupported style %s - ignoring\0A\00", align 1

; Function Attrs: inlinehint nounwind willreturn memory(read) uwtable
define available_externally double @atof(ptr noundef nonnull %0) #6 {
  %2 = alloca ptr, align 8
  store ptr %0, ptr %2, align 8, !tbaa !8
  %3 = load ptr, ptr %2, align 8, !tbaa !8
  %4 = call double @strtod(ptr noundef %3, ptr noundef null) #15
  ret double %4
}

; Function Attrs: inlinehint nounwind uwtable
define internal zeroext i1 @streq(ptr noundef %0, ptr noundef %1) #5 {
  %3 = alloca ptr, align 8
  %4 = alloca ptr, align 8
  store ptr %0, ptr %3, align 8, !tbaa !8
  store ptr %1, ptr %4, align 8, !tbaa !8
  %5 = load ptr, ptr %3, align 8, !tbaa !8
  %6 = load ptr, ptr %4, align 8, !tbaa !8
  %7 = call i32 @strcmp(ptr noundef %5, ptr noundef %6) #16
  %8 = icmp eq i32 %7, 0
  ret i1 %8
}

; Function Attrs: nounwind uwtable
define void @gvrender_set_style(ptr noundef %0, ptr noundef %1) #0 {
  %3 = alloca ptr, align 8
  %4 = alloca ptr, align 8
  %5 = alloca ptr, align 8
  %6 = alloca ptr, align 8
  %7 = alloca ptr, align 8
  %8 = alloca ptr, align 8
  store ptr %0, ptr %3, align 8, !tbaa !3
  store ptr %1, ptr %4, align 8, !tbaa !130
  call void @llvm.lifetime.start.p0(i64 8, ptr %5) #15
  %9 = load ptr, ptr %3, align 8, !tbaa !3
  %10 = getelementptr inbounds nuw %struct.GVJ_s, ptr %9, i32 0, i32 15
  %11 = getelementptr inbounds nuw %struct.gvplugin_active_render_s, ptr %10, i32 0, i32 0
  %12 = load ptr, ptr %11, align 8, !tbaa !51
  store ptr %12, ptr %5, align 8, !tbaa !58
  call void @llvm.lifetime.start.p0(i64 8, ptr %6) #15
  %13 = load ptr, ptr %3, align 8, !tbaa !3
  %14 = getelementptr inbounds nuw %struct.GVJ_s, ptr %13, i32 0, i32 4
  %15 = load ptr, ptr %14, align 8, !tbaa !116
  store ptr %15, ptr %6, align 8, !tbaa !131
  call void @llvm.lifetime.start.p0(i64 8, ptr %7) #15
  call void @llvm.lifetime.start.p0(i64 8, ptr %8) #15
  %16 = load ptr, ptr %4, align 8, !tbaa !130
  %17 = load ptr, ptr %6, align 8, !tbaa !131
  %18 = getelementptr inbounds nuw %struct.obj_state_s, ptr %17, i32 0, i32 12
  store ptr %16, ptr %18, align 8, !tbaa !132
  %19 = load ptr, ptr %5, align 8, !tbaa !58
  %20 = icmp ne ptr %19, null
  br i1 %20, label %21, label %110

21:                                               ; preds = %2
  %22 = load ptr, ptr %4, align 8, !tbaa !130
  %23 = icmp ne ptr %22, null
  br i1 %23, label %24, label %109

24:                                               ; preds = %21
  br label %25

25:                                               ; preds = %107, %24
  %26 = load ptr, ptr %4, align 8, !tbaa !130
  %27 = getelementptr inbounds nuw ptr, ptr %26, i32 1
  store ptr %27, ptr %4, align 8, !tbaa !130
  %28 = load ptr, ptr %26, align 8, !tbaa !8
  store ptr %28, ptr %7, align 8, !tbaa !8
  store ptr %28, ptr %8, align 8, !tbaa !8
  %29 = icmp ne ptr %28, null
  br i1 %29, label %30, label %108

30:                                               ; preds = %25
  %31 = load ptr, ptr %7, align 8, !tbaa !8
  %32 = call zeroext i1 @streq(ptr noundef %31, ptr noundef @.str)
  br i1 %32, label %33, label %36

33:                                               ; preds = %30
  %34 = load ptr, ptr %6, align 8, !tbaa !131
  %35 = getelementptr inbounds nuw %struct.obj_state_s, ptr %34, i32 0, i32 9
  store i32 3, ptr %35, align 8, !tbaa !117
  br label %107

36:                                               ; preds = %30
  %37 = load ptr, ptr %7, align 8, !tbaa !8
  %38 = call zeroext i1 @streq(ptr noundef %37, ptr noundef @.str.1)
  br i1 %38, label %39, label %42

39:                                               ; preds = %36
  %40 = load ptr, ptr %6, align 8, !tbaa !131
  %41 = getelementptr inbounds nuw %struct.obj_state_s, ptr %40, i32 0, i32 9
  store i32 1, ptr %41, align 8, !tbaa !117
  br label %106

42:                                               ; preds = %36
  %43 = load ptr, ptr %7, align 8, !tbaa !8
  %44 = call zeroext i1 @streq(ptr noundef %43, ptr noundef @.str.2)
  br i1 %44, label %45, label %48

45:                                               ; preds = %42
  %46 = load ptr, ptr %6, align 8, !tbaa !131
  %47 = getelementptr inbounds nuw %struct.obj_state_s, ptr %46, i32 0, i32 9
  store i32 2, ptr %47, align 8, !tbaa !117
  br label %105

48:                                               ; preds = %42
  %49 = load ptr, ptr %7, align 8, !tbaa !8
  %50 = call zeroext i1 @streq(ptr noundef %49, ptr noundef @.str.3)
  br i1 %50, label %54, label %51

51:                                               ; preds = %48
  %52 = load ptr, ptr %7, align 8, !tbaa !8
  %53 = call zeroext i1 @streq(ptr noundef %52, ptr noundef @.str.4)
  br i1 %53, label %54, label %57

54:                                               ; preds = %51, %48
  %55 = load ptr, ptr %6, align 8, !tbaa !131
  %56 = getelementptr inbounds nuw %struct.obj_state_s, ptr %55, i32 0, i32 9
  store i32 0, ptr %56, align 8, !tbaa !117
  br label %104

57:                                               ; preds = %51
  %58 = load ptr, ptr %7, align 8, !tbaa !8
  %59 = call zeroext i1 @streq(ptr noundef %58, ptr noundef @.str.5)
  br i1 %59, label %60, label %63

60:                                               ; preds = %57
  %61 = load ptr, ptr %6, align 8, !tbaa !131
  %62 = getelementptr inbounds nuw %struct.obj_state_s, ptr %61, i32 0, i32 11
  store double 2.000000e+00, ptr %62, align 8, !tbaa !133
  br label %103

63:                                               ; preds = %57
  %64 = load ptr, ptr %7, align 8, !tbaa !8
  %65 = call zeroext i1 @streq(ptr noundef %64, ptr noundef @.str.6)
  br i1 %65, label %66, label %81

66:                                               ; preds = %63
  br label %67

67:                                               ; preds = %71, %66
  %68 = load ptr, ptr %8, align 8, !tbaa !8
  %69 = load i8, ptr %68, align 1, !tbaa !115
  %70 = icmp ne i8 %69, 0
  br i1 %70, label %71, label %74

71:                                               ; preds = %67
  %72 = load ptr, ptr %8, align 8, !tbaa !8
  %73 = getelementptr inbounds nuw i8, ptr %72, i32 1
  store ptr %73, ptr %8, align 8, !tbaa !8
  br label %67, !llvm.loop !134

74:                                               ; preds = %67
  %75 = load ptr, ptr %8, align 8, !tbaa !8
  %76 = getelementptr inbounds nuw i8, ptr %75, i32 1
  store ptr %76, ptr %8, align 8, !tbaa !8
  %77 = load ptr, ptr %8, align 8, !tbaa !8
  %78 = call double @atof(ptr noundef %77) #16
  %79 = load ptr, ptr %6, align 8, !tbaa !131
  %80 = getelementptr inbounds nuw %struct.obj_state_s, ptr %79, i32 0, i32 11
  store double %78, ptr %80, align 8, !tbaa !133
  br label %102

81:                                               ; preds = %63
  %82 = load ptr, ptr %7, align 8, !tbaa !8
  %83 = call zeroext i1 @streq(ptr noundef %82, ptr noundef @.str.7)
  br i1 %83, label %84, label %87

84:                                               ; preds = %81
  %85 = load ptr, ptr %6, align 8, !tbaa !131
  %86 = getelementptr inbounds nuw %struct.obj_state_s, ptr %85, i32 0, i32 10
  store i32 1, ptr %86, align 4, !tbaa !135
  br label %101

87:                                               ; preds = %81
  %88 = load ptr, ptr %7, align 8, !tbaa !8
  %89 = call zeroext i1 @streq(ptr noundef %88, ptr noundef @.str.8)
  br i1 %89, label %90, label %93

90:                                               ; preds = %87
  %91 = load ptr, ptr %6, align 8, !tbaa !131
  %92 = getelementptr inbounds nuw %struct.obj_state_s, ptr %91, i32 0, i32 10
  store i32 0, ptr %92, align 4, !tbaa !135
  br label %100

93:                                               ; preds = %87
  %94 = load ptr, ptr %7, align 8, !tbaa !8
  %95 = call zeroext i1 @streq(ptr noundef %94, ptr noundef @.str.9)
  br i1 %95, label %96, label %97

96:                                               ; preds = %93
  br label %99

97:                                               ; preds = %93
  %98 = load ptr, ptr %7, align 8, !tbaa !8
  call void (ptr, ...) @agwarningf(ptr noundef @.str.10, ptr noundef %98)
  br label %99

99:                                               ; preds = %97, %96
  br label %100

100:                                              ; preds = %99, %90
  br label %101

101:                                              ; preds = %100, %84
  br label %102

102:                                              ; preds = %101, %74
  br label %103

103:                                              ; preds = %102, %60
  br label %104

104:                                              ; preds = %103, %54
  br label %105

105:                                              ; preds = %104, %45
  br label %106

106:                                              ; preds = %105, %39
  br label %107

107:                                              ; preds = %106, %33
  br label %25, !llvm.loop !136

108:                                              ; preds = %25
  br label %109

109:                                              ; preds = %108, %21
  br label %110

110:                                              ; preds = %109, %2
  call void @llvm.lifetime.end.p0(i64 8, ptr %8) #15
  call void @llvm.lifetime.end.p0(i64 8, ptr %7) #15
  call void @llvm.lifetime.end.p0(i64 8, ptr %6) #15
  call void @llvm.lifetime.end.p0(i64 8, ptr %5) #15
  ret void
}