; Function Attrs: nounwind uwtable
define void @gvrender_set_style(ptr noundef readonly captures(none) %0, ptr noundef %1) local_unnamed_addr #0 {
  %3 = getelementptr inbounds nuw i8, ptr %0, i64 120
  %4 = load ptr, ptr %3, align 8, !tbaa !47
  %5 = getelementptr inbounds nuw i8, ptr %0, i64 32
  %6 = load ptr, ptr %5, align 8, !tbaa !107
  %7 = getelementptr inbounds nuw i8, ptr %6, i64 184
  store ptr %1, ptr %7, align 8, !tbaa !121
  %8 = icmp ne ptr %4, null
  %9 = icmp ne ptr %1, null
  %or.cond = and i1 %9, %8
  br i1 %or.cond, label %.preheader35, label %.loopexit

.preheader35:                                     ; preds = %2
  %10 = load ptr, ptr %1, align 8, !tbaa !87
  %.not36 = icmp eq ptr %10, null
  br i1 %.not36, label %.loopexit, label %.lr.ph

.lr.ph:                                           ; preds = %.preheader35
  %11 = getelementptr inbounds nuw i8, ptr %6, i64 172
  %12 = getelementptr inbounds nuw i8, ptr %6, i64 176
  %13 = getelementptr inbounds nuw i8, ptr %6, i64 168
  br label %14

14:                                               ; preds = %.lr.ph, %58
  %15 = phi ptr [ %10, %.lr.ph ], [ %59, %58 ]
  %.pn = phi ptr [ %1, %.lr.ph ], [ %16, %58 ]
  %16 = getelementptr inbounds nuw i8, ptr %.pn, i64 8
  %17 = tail call i32 @strcmp(ptr noundef nonnull readonly dereferenceable(1) %15, ptr noundef nonnull dereferenceable(6) @.str) #23
  %18 = icmp eq i32 %17, 0
  br i1 %18, label %19, label %20

19:                                               ; preds = %14
  store i32 3, ptr %13, align 8, !tbaa !108
  br label %58

20:                                               ; preds = %14
  %21 = tail call i32 @strcmp(ptr noundef nonnull readonly dereferenceable(1) %15, ptr noundef nonnull dereferenceable(7) @.str.1) #23
  %22 = icmp eq i32 %21, 0
  br i1 %22, label %23, label %24

23:                                               ; preds = %20
  store i32 1, ptr %13, align 8, !tbaa !108
  br label %58

24:                                               ; preds = %20
  %25 = tail call i32 @strcmp(ptr noundef nonnull readonly dereferenceable(1) %15, ptr noundef nonnull dereferenceable(7) @.str.2) #23
  %26 = icmp eq i32 %25, 0
  br i1 %26, label %27, label %28

27:                                               ; preds = %24
  store i32 2, ptr %13, align 8, !tbaa !108
  br label %58

28:                                               ; preds = %24
  %29 = tail call i32 @strcmp(ptr noundef nonnull readonly dereferenceable(1) %15, ptr noundef nonnull dereferenceable(6) @.str.3) #23
  %30 = icmp eq i32 %29, 0
  br i1 %30, label %34, label %31

31:                                               ; preds = %28
  %32 = tail call i32 @strcmp(ptr noundef nonnull readonly dereferenceable(1) %15, ptr noundef nonnull dereferenceable(10) @.str.4) #23
  %33 = icmp eq i32 %32, 0
  br i1 %33, label %34, label %35

34:                                               ; preds = %31, %28
  store i32 0, ptr %13, align 8, !tbaa !108
  br label %58

35:                                               ; preds = %31
  %36 = tail call i32 @strcmp(ptr noundef nonnull readonly dereferenceable(1) %15, ptr noundef nonnull dereferenceable(5) @.str.5) #23
  %37 = icmp eq i32 %36, 0
  br i1 %37, label %38, label %39

38:                                               ; preds = %35
  store double 2.000000e+00, ptr %12, align 8, !tbaa !122
  br label %58

39:                                               ; preds = %35
  %40 = tail call i32 @strcmp(ptr noundef nonnull readonly dereferenceable(1) %15, ptr noundef nonnull dereferenceable(13) @.str.6) #23
  %41 = icmp eq i32 %40, 0
  br i1 %41, label %.preheader, label %46

.preheader:                                       ; preds = %39, %.preheader
  %.0 = phi ptr [ %43, %.preheader ], [ %15, %39 ]
  %42 = load i8, ptr %.0, align 1, !tbaa !106
  %.not34 = icmp eq i8 %42, 0
  %43 = getelementptr inbounds nuw i8, ptr %.0, i64 1
  br i1 %.not34, label %44, label %.preheader, !llvm.loop !123

44:                                               ; preds = %.preheader
  %45 = tail call double @strtod(ptr noundef nonnull captures(none) %43, ptr noundef null) #22
  store double %45, ptr %12, align 8, !tbaa !122
  br label %58

46:                                               ; preds = %39
  %47 = tail call i32 @strcmp(ptr noundef nonnull readonly dereferenceable(1) %15, ptr noundef nonnull dereferenceable(7) @.str.7) #23
  %48 = icmp eq i32 %47, 0
  br i1 %48, label %49, label %50

49:                                               ; preds = %46
  store i32 1, ptr %11, align 4, !tbaa !124
  br label %58

50:                                               ; preds = %46
  %51 = tail call i32 @strcmp(ptr noundef nonnull readonly dereferenceable(1) %15, ptr noundef nonnull dereferenceable(9) @.str.8) #23
  %52 = icmp eq i32 %51, 0
  br i1 %52, label %53, label %54

53:                                               ; preds = %50
  store i32 0, ptr %11, align 4, !tbaa !124
  br label %58

54:                                               ; preds = %50
  %55 = tail call i32 @strcmp(ptr noundef nonnull readonly dereferenceable(1) %15, ptr noundef nonnull dereferenceable(8) @.str.9) #23
  %56 = icmp eq i32 %55, 0
  br i1 %56, label %58, label %57

57:                                               ; preds = %54
  tail call void (ptr, ...) @agwarningf(ptr noundef nonnull @.str.10, ptr noundef nonnull %15) #22
  br label %58

58:                                               ; preds = %23, %34, %44, %53, %54, %57, %49, %38, %27, %19
  %59 = load ptr, ptr %16, align 8, !tbaa !87
  %.not = icmp eq ptr %59, null
  br i1 %.not, label %.loopexit, label %14, !llvm.loop !125

.loopexit:                                        ; preds = %58, %.preheader35, %2
  ret void
}